; ModuleID = '24/740.c'
source_filename = "24/740.c"
target datalayout = "e-m:e-p270:32:32-p271:32:32-p272:64:64-i64:64-f80:128-n8:16:32:64-S128"
target triple = "x86_64-pc-linux-gnu"

@.str = private unnamed_addr constant [3 x i8] c"%c\00", align 1
@.str.1 = private unnamed_addr constant [2 x i8] c"\0A\00", align 1

; Function Attrs: noinline nounwind uwtable
define dso_local void @main() #0 {
  %1 = alloca [1000 x i8], align 16
  %2 = alloca i32, align 4
  %3 = alloca i32, align 4
  %4 = alloca i32, align 4
  %5 = alloca i32, align 4
  %6 = alloca i32, align 4
  %7 = alloca i32, align 4
  %8 = alloca i32, align 4
  store i32 0, i32* %3, align 4
  store i32 9999, i32* %4, align 4
  store i32 0, i32* %8, align 4
  %9 = getelementptr inbounds [1000 x i8], [1000 x i8]* %1, i64 0, i64 0
  %10 = call i32 (i8*, ...) bitcast (i32 (...)* @gets to i32 (i8*, ...)*)(i8* %9)
  %11 = getelementptr inbounds [1000 x i8], [1000 x i8]* %1, i64 0, i64 0
  %12 = call i64 @strlen(i8* %11) #3
  %13 = trunc i64 %12 to i32
  store i32 %13, i32* %7, align 4
  store i32 0, i32* %2, align 4
  br label %14

14:                                               ; preds = %49, %0
  %15 = load i32, i32* %2, align 4
  %16 = load i32, i32* %7, align 4
  %17 = icmp slt i32 %15, %16
  br i1 %17, label %18, label %52

18:                                               ; preds = %14
  %19 = getelementptr inbounds [1000 x i8], [1000 x i8]* %1, i64 0, i64 0
  %20 = load i32, i32* %2, align 4
  %21 = sext i32 %20 to i64
  %22 = getelementptr inbounds i8, i8* %19, i64 %21
  %23 = load i8, i8* %22, align 1
  %24 = sext i8 %23 to i32
  %25 = icmp eq i32 %24, 32
  br i1 %25, label %26, label %45

26:                                               ; preds = %18
  %27 = load i32, i32* %8, align 4
  %28 = load i32, i32* %3, align 4
  %29 = icmp sgt i32 %27, %28
  br i1 %29, label %30, label %35

30:                                               ; preds = %26
  %31 = load i32, i32* %8, align 4
  store i32 %31, i32* %3, align 4
  %32 = load i32, i32* %2, align 4
  %33 = load i32, i32* %8, align 4
  %34 = sub nsw i32 %32, %33
  store i32 %34, i32* %5, align 4
  br label %35

35:                                               ; preds = %30, %26
  %36 = load i32, i32* %8, align 4
  %37 = load i32, i32* %4, align 4
  %38 = icmp slt i32 %36, %37
  br i1 %38, label %39, label %44

39:                                               ; preds = %35
  %40 = load i32, i32* %8, align 4
  store i32 %40, i32* %4, align 4
  %41 = load i32, i32* %2, align 4
  %42 = load i32, i32* %8, align 4
  %43 = sub nsw i32 %41, %42
  store i32 %43, i32* %6, align 4
  br label %44

44:                                               ; preds = %39, %35
  store i32 0, i32* %8, align 4
  br label %48

45:                                               ; preds = %18
  %46 = load i32, i32* %8, align 4
  %47 = add nsw i32 %46, 1
  store i32 %47, i32* %8, align 4
  br label %48

48:                                               ; preds = %45, %44
  br label %49

49:                                               ; preds = %48
  %50 = load i32, i32* %2, align 4
  %51 = add nsw i32 %50, 1
  store i32 %51, i32* %2, align 4
  br label %14

52:                                               ; preds = %14
  %53 = load i32, i32* %8, align 4
  %54 = load i32, i32* %3, align 4
  %55 = icmp sgt i32 %53, %54
  br i1 %55, label %56, label %61

56:                                               ; preds = %52
  %57 = load i32, i32* %8, align 4
  store i32 %57, i32* %3, align 4
  %58 = load i32, i32* %2, align 4
  %59 = load i32, i32* %8, align 4
  %60 = sub nsw i32 %58, %59
  store i32 %60, i32* %5, align 4
  br label %61

61:                                               ; preds = %56, %52
  %62 = load i32, i32* %8, align 4
  %63 = load i32, i32* %4, align 4
  %64 = icmp slt i32 %62, %63
  br i1 %64, label %65, label %70

65:                                               ; preds = %61
  %66 = load i32, i32* %8, align 4
  store i32 %66, i32* %4, align 4
  %67 = load i32, i32* %2, align 4
  %68 = load i32, i32* %8, align 4
  %69 = sub nsw i32 %67, %68
  store i32 %69, i32* %6, align 4
  br label %70

70:                                               ; preds = %65, %61
  %71 = load i32, i32* %5, align 4
  store i32 %71, i32* %2, align 4
  br label %72

72:                                               ; preds = %98, %70
  %73 = getelementptr inbounds [1000 x i8], [1000 x i8]* %1, i64 0, i64 0
  %74 = load i32, i32* %2, align 4
  %75 = sext i32 %74 to i64
  %76 = getelementptr inbounds i8, i8* %73, i64 %75
  %77 = load i8, i8* %76, align 1
  %78 = sext i8 %77 to i32
  %79 = icmp ne i32 %78, 32
  br i1 %79, label %80, label %88

80:                                               ; preds = %72
  %81 = getelementptr inbounds [1000 x i8], [1000 x i8]* %1, i64 0, i64 0
  %82 = load i32, i32* %2, align 4
  %83 = sext i32 %82 to i64
  %84 = getelementptr inbounds i8, i8* %81, i64 %83
  %85 = load i8, i8* %84, align 1
  %86 = sext i8 %85 to i32
  %87 = icmp ne i32 %86, 0
  br label %88

88:                                               ; preds = %80, %72
  %89 = phi i1 [ false, %72 ], [ %87, %80 ]
  br i1 %89, label %90, label %101

90:                                               ; preds = %88
  %91 = getelementptr inbounds [1000 x i8], [1000 x i8]* %1, i64 0, i64 0
  %92 = load i32, i32* %2, align 4
  %93 = sext i32 %92 to i64
  %94 = getelementptr inbounds i8, i8* %91, i64 %93
  %95 = load i8, i8* %94, align 1
  %96 = sext i8 %95 to i32
  %97 = call i32 (i8*, ...) @printf(i8* getelementptr inbounds ([3 x i8], [3 x i8]* @.str, i64 0, i64 0), i32 %96)
  br label %98

98:                                               ; preds = %90
  %99 = load i32, i32* %2, align 4
  %100 = add nsw i32 %99, 1
  store i32 %100, i32* %2, align 4
  br label %72

101:                                              ; preds = %88
  %102 = call i32 (i8*, ...) @printf(i8* getelementptr inbounds ([2 x i8], [2 x i8]* @.str.1, i64 0, i64 0))
  %103 = load i32, i32* %6, align 4
  store i32 %103, i32* %2, align 4
  br label %104

104:                                              ; preds = %130, %101
  %105 = getelementptr inbounds [1000 x i8], [1000 x i8]* %1, i64 0, i64 0
  %106 = load i32, i32* %2, align 4
  %107 = sext i32 %106 to i64
  %108 = getelementptr inbounds i8, i8* %105, i64 %107
  %109 = load i8, i8* %108, align 1
  %110 = sext i8 %109 to i32
  %111 = icmp ne i32 %110, 32
  br i1 %111, label %112, label %120

112:                                              ; preds = %104
  %113 = getelementptr inbounds [1000 x i8], [1000 x i8]* %1, i64 0, i64 0
  %114 = load i32, i32* %2, align 4
  %115 = sext i32 %114 to i64
  %116 = getelementptr inbounds i8, i8* %113, i64 %115
  %117 = load i8, i8* %116, align 1
  %118 = sext i8 %117 to i32
  %119 = icmp ne i32 %118, 0
  br label %120

120:                                              ; preds = %112, %104
  %121 = phi i1 [ false, %104 ], [ %119, %112 ]
  br i1 %121, label %122, label %133

122:                                              ; preds = %120
  %123 = getelementptr inbounds [1000 x i8], [1000 x i8]* %1, i64 0, i64 0
  %124 = load i32, i32* %2, align 4
  %125 = sext i32 %124 to i64
  %126 = getelementptr inbounds i8, i8* %123, i64 %125
  %127 = load i8, i8* %126, align 1
  %128 = sext i8 %127 to i32
  %129 = call i32 (i8*, ...) @printf(i8* getelementptr inbounds ([3 x i8], [3 x i8]* @.str, i64 0, i64 0), i32 %128)
  br label %130

130:                                              ; preds = %122
  %131 = load i32, i32* %2, align 4
  %132 = add nsw i32 %131, 1
  store i32 %132, i32* %2, align 4
  br label %104

133:                                              ; preds = %120
  ret void
}

declare dso_local i32 @gets(...) #1

; Function Attrs: nounwind readonly
declare dso_local i64 @strlen(i8*) #2

declare dso_local i32 @printf(i8*, ...) #1


!llvm.module.flags = !{!0}
!llvm.ident = !{!1}

!0 = !{i32 1, !"wchar_size", i32 4}
!1 = !{!"clang version 10.0.0-4ubuntu1 "}
